target datalayout = "e-m:e-p270:32:32-p271:32:32-p272:64:64-i64:64-i128:128-f80:128-n8:16:32:64-S128"
target triple = "x86_64-pc-linux-gnu"

%struct.pcapio_writer = type { ptr, ptr, i32 }

; Function Attrs: null_pointer_is_valid sspstrong uwtable
define hidden zeroext i1 @writecap_close(ptr noundef %0, ptr noundef %1) #0 {
  %3 = alloca ptr, align 8
  %4 = alloca ptr, align 8
  %5 = alloca i32, align 4
  store ptr %0, ptr %3, align 8
  store ptr %1, ptr %4, align 8
  call void @llvm.lifetime.start.p0(i64 4, ptr %5) #12
  store i32 0, ptr %5, align 4
  %6 = call ptr @__errno_location() #15
  store i32 -11, ptr %6, align 4
  %7 = load ptr, ptr %3, align 8
  %8 = getelementptr inbounds nuw %struct.pcapio_writer, ptr %7, i32 0, i32 2
  %9 = load i32, ptr %8, align 8
  switch i32 %9, label %20 [
    i32 1, label %10
    i32 3, label %15
  ]

10:                                               ; preds = %2
  %11 = load ptr, ptr %3, align 8
  %12 = getelementptr inbounds nuw %struct.pcapio_writer, ptr %11, i32 0, i32 0
  %13 = load ptr, ptr %12, align 8
  %14 = call i32 @gzwfile_close(ptr noundef %13)
  store i32 %14, ptr %5, align 4
  br label %30

15:                                               ; preds = %2
  %16 = load ptr, ptr %3, align 8
  %17 = getelementptr inbounds nuw %struct.pcapio_writer, ptr %16, i32 0, i32 0
  %18 = load ptr, ptr %17, align 8
  %19 = call i32 @lz4wfile_close(ptr noundef %18)
  store i32 %19, ptr %5, align 4
  br label %30

20:                                               ; preds = %2
  %21 = load ptr, ptr %3, align 8
  %22 = getelementptr inbounds nuw %struct.pcapio_writer, ptr %21, i32 0, i32 0
  %23 = load ptr, ptr %22, align 8
  %24 = call i32 @fclose(ptr noundef %23)
  %25 = icmp eq i32 %24, -1
  br i1 %25, label %26, label %29

26:                                               ; preds = %20
  %27 = call ptr @__errno_location() #15
  %28 = load i32, ptr %27, align 4
  store i32 %28, ptr %5, align 4
  br label %29

29:                                               ; preds = %26, %20
  br label %30

30:                                               ; preds = %29, %15, %10
  %31 = load ptr, ptr %3, align 8
  %32 = getelementptr inbounds nuw %struct.pcapio_writer, ptr %31, i32 0, i32 1
  %33 = load ptr, ptr %32, align 8
  call void @g_free(ptr noundef %33)
  %34 = load ptr, ptr %3, align 8
  call void @g_free(ptr noundef %34)
  %35 = load ptr, ptr %4, align 8
  %36 = icmp ne ptr %35, null
  br i1 %36, label %37, label %40

37:                                               ; preds = %30
  %38 = load i32, ptr %5, align 4
  %39 = load ptr, ptr %4, align 8
  store i32 %38, ptr %39, align 4
  br label %40

40:                                               ; preds = %37, %30
  %41 = load i32, ptr %5, align 4
  %42 = icmp eq i32 %41, 0
  call void @llvm.lifetime.end.p0(i64 4, ptr %5) #12
  ret i1 %42
}