; Function Attrs: null_pointer_is_valid sspstrong uwtable
define hidden zeroext i1 @writecap_close(ptr noundef %0, ptr noundef writeonly captures(address_is_null) %1) local_unnamed_addr #0 {
  %3 = tail call ptr @__errno_location() #13
  store i32 -11, ptr %3, align 4
  %4 = getelementptr inbounds nuw i8, ptr %0, i64 16
  %5 = load i32, ptr %4, align 8
  %6 = load ptr, ptr %0, align 8
  switch i32 %5, label %11 [
    i32 1, label %7
    i32 3, label %9
  ]

7:                                                ; preds = %2
  %8 = tail call i32 @gzwfile_close(ptr noundef %6)
  br label %16

9:                                                ; preds = %2
  %10 = tail call i32 @lz4wfile_close(ptr noundef %6)
  br label %16

11:                                               ; preds = %2
  %12 = tail call i32 @fclose(ptr noundef %6)
  %13 = icmp eq i32 %12, -1
  br i1 %13, label %14, label %16

14:                                               ; preds = %11
  %15 = load i32, ptr %3, align 4
  br label %16

16:                                               ; preds = %11, %14, %9, %7
  %.0 = phi i32 [ %15, %14 ], [ 0, %11 ], [ %10, %9 ], [ %8, %7 ]
  %17 = getelementptr inbounds nuw i8, ptr %0, i64 8
  %18 = load ptr, ptr %17, align 8
  tail call void @g_free(ptr noundef %18)
  tail call void @g_free(ptr noundef %0)
  %.not = icmp eq ptr %1, null
  br i1 %.not, label %20, label %19

19:                                               ; preds = %16
  store i32 %.0, ptr %1, align 4
  br label %20

20:                                               ; preds = %19, %16
  %21 = icmp eq i32 %.0, 0
  ret i1 %21
}